; Function Attrs: nounwind uwtable
define internal noundef i32 @fd_puts(ptr noundef %0, ptr noundef readonly captures(none) %1) #1 {
  %3 = tail call i64 @strlen(ptr noundef nonnull dereferenceable(1) %1) #11
  %4 = tail call ptr @__errno_location() #10
  store i32 0, ptr %4, align 4, !tbaa !3
  %5 = getelementptr inbounds nuw i8, ptr %0, i64 56
  %6 = load i32, ptr %5, align 8, !tbaa !7
  %sext = shl i64 %3, 32
  %7 = ashr exact i64 %sext, 32
  %8 = tail call i64 @write(i32 noundef %6, ptr noundef nonnull readonly %1, i64 noundef %7) #9
  %9 = trunc i64 %8 to i32
  tail call void @BIO_clear_flags(ptr noundef %0, i32 noundef 15) #9
  %10 = add i32 %9, 1
  %or.cond.i = icmp ult i32 %10, 2
  br i1 %or.cond.i, label %11, label %fd_write.exit

11:                                               ; preds = %2
  %12 = load i32, ptr %4, align 4, !tbaa !3
  switch i32 %12, label %fd_write.exit [
    i32 11, label %BIO_fd_should_retry.exit.i
    i32 107, label %BIO_fd_should_retry.exit.i
    i32 4, label %BIO_fd_should_retry.exit.i
    i32 71, label %BIO_fd_should_retry.exit.i
    i32 115, label %BIO_fd_should_retry.exit.i
    i32 114, label %BIO_fd_should_retry.exit.i
  ]

BIO_fd_should_retry.exit.i:                       ; preds = %11, %11, %11, %11, %11, %11
  tail call void @BIO_set_flags(ptr noundef nonnull %0, i32 noundef 10) #9
  br label %fd_write.exit

fd_write.exit:                                    ; preds = %2, %11, %BIO_fd_should_retry.exit.i
  ret i32 %9
}